; Function Attrs: mustprogress nounwind uwtable
define hidden void @_ZN11JavaClasses14compute_offsetERiP13InstanceKlassPKcP6Symbolb(ptr nocapture noundef nonnull writeonly align 4 dereferenceable(4) %0, ptr noundef %1, ptr noundef %2, ptr noundef %3, i1 noundef zeroext %4) local_unnamed_addr #0 align 2 {
  %6 = alloca i32, align 4
  %7 = tail call i64 @strlen(ptr noundef nonnull dereferenceable(1) %2) #20
  %8 = trunc i64 %7 to i32
  call void @llvm.lifetime.start.p0(i64 4, ptr nonnull %6)
  %9 = call noundef ptr @_ZN11SymbolTable11lookup_onlyEPKciRj(ptr noundef %2, i32 noundef %8, ptr noundef nonnull align 4 dereferenceable(4) %6) #19
  call void @llvm.lifetime.end.p0(i64 4, ptr nonnull %6)
  %.not.i = icmp eq ptr %9, null
  br i1 %.not.i, label %_ZN16SymbolHandleBaseILb1EEC2EP6Symbol.exit, label %10

10:                                               ; preds = %5
  %11 = load volatile i32, ptr %9, align 4
  %12 = and i32 %11, 65535
  %13 = icmp eq i32 %12, 1
  br i1 %13, label %14, label %36

14:                                               ; preds = %10
  call void @_ZN24TempSymbolCleanupDelayer13delay_cleanupEP6Symbol(ptr noundef nonnull %9) #19
  br label %36

_ZN16SymbolHandleBaseILb1EEC2EP6Symbol.exit:      ; preds = %5
  %15 = call align 8 ptr @llvm.threadlocal.address.p0(ptr align 8 @_ZN6Thread12_thr_currentE)
  %16 = load ptr, ptr %15, align 8
  %17 = getelementptr inbounds i8, ptr %16, i64 800
  %18 = load ptr, ptr %17, align 8
  %19 = getelementptr inbounds i8, ptr %18, i64 24
  %20 = load ptr, ptr %19, align 8
  %21 = getelementptr inbounds i8, ptr %18, i64 32
  %22 = load ptr, ptr %21, align 8
  %23 = getelementptr inbounds i8, ptr %18, i64 40
  %24 = load ptr, ptr %23, align 8
  %25 = getelementptr inbounds i8, ptr %18, i64 8
  %26 = load i64, ptr %25, align 8
  %27 = load volatile ptr, ptr getelementptr inbounds (i8, ptr @_ZN16LogTagSetMappingILN6LogTag4typeE16ELS1_0ELS1_0ELS1_0ELS1_0ELS1_0EE7_tagsetE, i64 80), align 8
  %.not = icmp eq ptr %27, null
  br i1 %.not, label %29, label %28

28:                                               ; preds = %_ZN16SymbolHandleBaseILb1EEC2EP6Symbol.exit
  call void (ptr, ...) @_ZN7LogImplILN6LogTag4typeE16ELS1_0ELS1_0ELS1_0ELS1_0ELS1_0EE5writeILN8LogLevel4typeE5EEEvPKcz(ptr noundef nonnull @.str.7, ptr noundef %2)
  br label %29

29:                                               ; preds = %_ZN16SymbolHandleBaseILb1EEC2EP6Symbol.exit, %28
  %30 = call noundef ptr @_ZNK5Klass13external_nameEv(ptr noundef nonnull align 8 dereferenceable(196) %1) #19
  call void @_Z29vm_exit_during_initializationPKcS0_(ptr noundef nonnull @.str.4, ptr noundef %30) #19
  %31 = load ptr, ptr %20, align 8
  %.not.i.i.i.i = icmp eq ptr %31, null
  br i1 %.not.i.i.i.i, label %33, label %32

32:                                               ; preds = %29
  call void @_ZN5Arena17set_size_in_bytesEm(ptr noundef nonnull align 8 dereferenceable(48) %18, i64 noundef %26) #19
  call void @_ZN5Chunk9next_chopEPS_(ptr noundef nonnull %20) #19
  br label %33

33:                                               ; preds = %32, %29
  %34 = load ptr, ptr %21, align 8
  %.not8.i.i.i.i = icmp eq ptr %34, %22
  br i1 %.not8.i.i.i.i, label %_ZN12ResourceMarkD2Ev.exit.thread, label %35

35:                                               ; preds = %33
  store ptr %20, ptr %19, align 8
  store ptr %22, ptr %21, align 8
  store ptr %24, ptr %23, align 8
  br label %_ZN12ResourceMarkD2Ev.exit.thread

_ZN12ResourceMarkD2Ev.exit.thread:                ; preds = %35, %33
  call void @_ZN11JavaClasses14compute_offsetERiP13InstanceKlassP6SymbolS4_b(ptr noundef nonnull align 4 dereferenceable(4) %0, ptr noundef nonnull %1, ptr noundef null, ptr noundef %3, i1 noundef zeroext %4)
  br label %_ZN16SymbolHandleBaseILb1EED2Ev.exit

36:                                               ; preds = %14, %10
  call void @_ZN11JavaClasses14compute_offsetERiP13InstanceKlassP6SymbolS4_b(ptr noundef nonnull align 4 dereferenceable(4) %0, ptr noundef %1, ptr noundef nonnull %9, ptr noundef %3, i1 noundef zeroext %4)
  call void @_ZN6Symbol18decrement_refcountEv(ptr noundef nonnull align 4 dereferenceable(8) %9) #19
  br label %_ZN16SymbolHandleBaseILb1EED2Ev.exit

_ZN16SymbolHandleBaseILb1EED2Ev.exit:             ; preds = %_ZN12ResourceMarkD2Ev.exit.thread, %36
  ret void
}